target datalayout = "e-m:e-p270:32:32-p271:32:32-p272:64:64-i64:64-i128:128-f80:128-n8:16:32:64-S128"
target triple = "x86_64-pc-linux-gnu"

@cwd = internal global ptr null, align 8
@force_agg_path = internal global ptr null, align 8
@.str.39 = private unnamed_addr constant [7 x i8] c"%s%c%s\00", align 1
@.str.43 = private unnamed_addr constant [22 x i8] c"help-pmix-mca-var.txt\00", align 1
@.str.68 = private unnamed_addr constant [11 x i8] c"OUT OF MEM\00", align 1
@.str.69 = private unnamed_addr constant [2 x i8] c"/\00", align 1
@.str.70 = private unnamed_addr constant [19 x i8] c"missing-param-file\00", align 1

; Function Attrs: nounwind uwtable
define internal i32 @fixup_files(ptr noundef %0, ptr noundef %1, i1 noundef zeroext %2, i8 noundef signext %3) #0 {
  %5 = alloca ptr, align 8
  %6 = alloca ptr, align 8
  %7 = alloca i8, align 1
  %8 = alloca i8, align 1
  %9 = alloca i32, align 4
  %10 = alloca ptr, align 8
  %11 = alloca ptr, align 8
  %12 = alloca ptr, align 8
  %13 = alloca ptr, align 8
  %14 = alloca ptr, align 8
  %15 = alloca i32, align 4
  %16 = alloca i32, align 4
  %17 = alloca i32, align 4
  %18 = alloca i32, align 4
  %19 = alloca ptr, align 8
  %20 = alloca i32, align 4
  store ptr %0, ptr %5, align 8, !tbaa !48
  store ptr %1, ptr %6, align 8, !tbaa !47
  %21 = zext i1 %2 to i8
  store i8 %21, ptr %7, align 1, !tbaa !54
  store i8 %3, ptr %8, align 1, !tbaa !24
  call void @llvm.lifetime.start.p0(i64 4, ptr %9) #15
  store i32 0, ptr %9, align 4, !tbaa !18
  call void @llvm.lifetime.start.p0(i64 8, ptr %10) #15
  store ptr null, ptr %10, align 8, !tbaa !48
  call void @llvm.lifetime.start.p0(i64 8, ptr %11) #15
  store ptr null, ptr %11, align 8, !tbaa !48
  call void @llvm.lifetime.start.p0(i64 8, ptr %12) #15
  store ptr null, ptr %12, align 8, !tbaa !47
  call void @llvm.lifetime.start.p0(i64 8, ptr %13) #15
  store ptr null, ptr %13, align 8, !tbaa !48
  call void @llvm.lifetime.start.p0(i64 8, ptr %14) #15
  call void @llvm.lifetime.start.p0(i64 4, ptr %15) #15
  store i32 4, ptr %15, align 4, !tbaa !18
  call void @llvm.lifetime.start.p0(i64 4, ptr %16) #15
  call void @llvm.lifetime.start.p0(i64 4, ptr %17) #15
  call void @llvm.lifetime.start.p0(i64 4, ptr %18) #15
  store i32 0, ptr %18, align 4, !tbaa !18
  %22 = load ptr, ptr %6, align 8, !tbaa !47
  %23 = call ptr @PMIx_Argv_split(ptr noundef %22, i32 noundef 58)
  store ptr %23, ptr %11, align 8, !tbaa !48
  %24 = load ptr, ptr %5, align 8, !tbaa !48
  %25 = load ptr, ptr %24, align 8, !tbaa !47
  %26 = load i8, ptr %8, align 1, !tbaa !24
  %27 = sext i8 %26 to i32
  %28 = call ptr @PMIx_Argv_split(ptr noundef %25, i32 noundef %27)
  store ptr %28, ptr %10, align 8, !tbaa !48
  %29 = load ptr, ptr %10, align 8, !tbaa !48
  %30 = call i32 @PMIx_Argv_count(ptr noundef %29)
  store i32 %30, ptr %16, align 4, !tbaa !18
  %31 = load ptr, ptr @force_agg_path, align 8, !tbaa !47
  %32 = icmp ne ptr %31, null
  br i1 %32, label %33, label %35

33:                                               ; preds = %4
  %34 = load ptr, ptr @force_agg_path, align 8, !tbaa !47
  br label %37

35:                                               ; preds = %4
  %36 = load ptr, ptr @cwd, align 8, !tbaa !47
  br label %37

37:                                               ; preds = %35, %33
  %38 = phi ptr [ %34, %33 ], [ %36, %35 ]
  store ptr %38, ptr %14, align 8, !tbaa !47
  store i32 0, ptr %17, align 4, !tbaa !18
  br label %39

39:                                               ; preds = %109, %37
  %40 = load i32, ptr %17, align 4, !tbaa !18
  %41 = load i32, ptr %16, align 4, !tbaa !18
  %42 = icmp slt i32 %40, %41
  br i1 %42, label %43, label %112

43:                                               ; preds = %39
  call void @llvm.lifetime.start.p0(i64 8, ptr %19) #15
  %44 = load ptr, ptr %6, align 8, !tbaa !47
  store ptr %44, ptr %19, align 8, !tbaa !47
  %45 = load ptr, ptr %10, align 8, !tbaa !48
  %46 = load i32, ptr %17, align 4, !tbaa !18
  %47 = sext i32 %46 to i64
  %48 = getelementptr inbounds ptr, ptr %45, i64 %47
  %49 = load ptr, ptr %48, align 8, !tbaa !47
  %50 = call zeroext i1 @pmix_path_is_absolute(ptr noundef %49)
  br i1 %50, label %51, label %58

51:                                               ; preds = %43
  %52 = load ptr, ptr %10, align 8, !tbaa !48
  %53 = load i32, ptr %17, align 4, !tbaa !18
  %54 = sext i32 %53 to i64
  %55 = getelementptr inbounds ptr, ptr %52, i64 %54
  %56 = load ptr, ptr %55, align 8, !tbaa !47
  %57 = call noalias ptr (i32, ...) @pmix_os_path(i32 noundef 0, ptr noundef %56, ptr noundef null)
  store ptr %57, ptr %12, align 8, !tbaa !47
  br label %90

58:                                               ; preds = %43
  %59 = load i8, ptr %7, align 1, !tbaa !54, !range !30, !noundef !31
  %60 = trunc i8 %59 to i1
  br i1 %60, label %80, label %61

61:                                               ; preds = %58
  %62 = load ptr, ptr %10, align 8, !tbaa !48
  %63 = load i32, ptr %17, align 4, !tbaa !18
  %64 = sext i32 %63 to i64
  %65 = getelementptr inbounds ptr, ptr %62, i64 %64
  %66 = load ptr, ptr %65, align 8, !tbaa !47
  %67 = load i8, ptr @.str.69, align 1, !tbaa !24
  %68 = sext i8 %67 to i32
  %69 = call ptr @strchr(ptr noundef %66, i32 noundef %68) #16
  %70 = icmp ne ptr null, %69
  br i1 %70, label %71, label %80

71:                                               ; preds = %61
  %72 = load ptr, ptr %14, align 8, !tbaa !47
  store ptr %72, ptr %19, align 8, !tbaa !47
  %73 = load ptr, ptr %10, align 8, !tbaa !48
  %74 = load i32, ptr %17, align 4, !tbaa !18
  %75 = sext i32 %74 to i64
  %76 = getelementptr inbounds ptr, ptr %73, i64 %75
  %77 = load ptr, ptr %76, align 8, !tbaa !47
  %78 = load ptr, ptr %14, align 8, !tbaa !47
  %79 = call noalias ptr (i32, ...) @pmix_os_path(i32 noundef 0, ptr noundef %77, ptr noundef %78, ptr noundef null)
  store ptr %79, ptr %12, align 8, !tbaa !47
  br label %89

80:                                               ; preds = %61, %58
  %81 = load ptr, ptr %10, align 8, !tbaa !48
  %82 = load i32, ptr %17, align 4, !tbaa !18
  %83 = sext i32 %82 to i64
  %84 = getelementptr inbounds ptr, ptr %81, i64 %83
  %85 = load ptr, ptr %84, align 8, !tbaa !47
  %86 = load ptr, ptr %11, align 8, !tbaa !48
  %87 = load i32, ptr %15, align 4, !tbaa !18
  %88 = call noalias ptr @pmix_path_find(ptr noundef %85, ptr noundef %86, i32 noundef %87, ptr noundef null)
  store ptr %88, ptr %12, align 8, !tbaa !47
  br label %89

89:                                               ; preds = %80, %71
  br label %90

90:                                               ; preds = %89, %51
  %91 = load ptr, ptr %12, align 8, !tbaa !47
  %92 = icmp eq ptr null, %91
  br i1 %92, label %93, label %102

93:                                               ; preds = %90
  %94 = call i32 @getpid() #15
  %95 = load ptr, ptr %10, align 8, !tbaa !48
  %96 = load i32, ptr %17, align 4, !tbaa !18
  %97 = sext i32 %96 to i64
  %98 = getelementptr inbounds ptr, ptr %95, i64 %97
  %99 = load ptr, ptr %98, align 8, !tbaa !47
  %100 = load ptr, ptr %19, align 8, !tbaa !47
  %101 = call i32 (ptr, ptr, i32, ...) @pmix_show_help(ptr noundef @.str.43, ptr noundef @.str.70, i32 noundef 1, i32 noundef %94, ptr noundef %99, ptr noundef %100)
  store i32 -1, ptr %9, align 4, !tbaa !18
  store i32 2, ptr %20, align 4
  br label %106

102:                                              ; preds = %90
  %103 = load ptr, ptr %12, align 8, !tbaa !47
  %104 = call i32 @pmix_argv_append(ptr noundef %18, ptr noundef %13, ptr noundef %103)
  %105 = load ptr, ptr %12, align 8, !tbaa !47
  call void @free(ptr noundef %105) #15
  store ptr null, ptr %12, align 8, !tbaa !47
  store i32 0, ptr %20, align 4
  br label %106

106:                                              ; preds = %102, %93
  call void @llvm.lifetime.end.p0(i64 8, ptr %19) #15
  %107 = load i32, ptr %20, align 4
  switch i32 %107, label %140 [
    i32 0, label %108
    i32 2, label %112
  ]

108:                                              ; preds = %106
  br label %109

109:                                              ; preds = %108
  %110 = load i32, ptr %17, align 4, !tbaa !18
  %111 = add nsw i32 %110, 1
  store i32 %111, ptr %17, align 4, !tbaa !18
  br label %39, !llvm.loop !134

112:                                              ; preds = %106, %39
  %113 = load i32, ptr %9, align 4, !tbaa !18
  %114 = icmp eq i32 0, %113
  br i1 %114, label %115, label %123

115:                                              ; preds = %112
  %116 = load ptr, ptr %5, align 8, !tbaa !48
  %117 = load ptr, ptr %116, align 8, !tbaa !47
  call void @free(ptr noundef %117) #15
  %118 = load ptr, ptr %13, align 8, !tbaa !48
  %119 = load i8, ptr %8, align 1, !tbaa !24
  %120 = sext i8 %119 to i32
  %121 = call ptr @PMIx_Argv_join(ptr noundef %118, i32 noundef %120)
  %122 = load ptr, ptr %5, align 8, !tbaa !48
  store ptr %121, ptr %122, align 8, !tbaa !47
  br label %123

123:                                              ; preds = %115, %112
  %124 = load ptr, ptr %10, align 8, !tbaa !48
  %125 = icmp ne ptr null, %124
  br i1 %125, label %126, label %128

126:                                              ; preds = %123
  %127 = load ptr, ptr %10, align 8, !tbaa !48
  call void @PMIx_Argv_free(ptr noundef %127)
  store ptr null, ptr %10, align 8, !tbaa !48
  br label %128

128:                                              ; preds = %126, %123
  %129 = load ptr, ptr %13, align 8, !tbaa !48
  %130 = icmp ne ptr null, %129
  br i1 %130, label %131, label %133

131:                                              ; preds = %128
  %132 = load ptr, ptr %13, align 8, !tbaa !48
  call void @PMIx_Argv_free(ptr noundef %132)
  store ptr null, ptr %13, align 8, !tbaa !48
  br label %133

133:                                              ; preds = %131, %128
  %134 = load ptr, ptr %11, align 8, !tbaa !48
  %135 = icmp ne ptr null, %134
  br i1 %135, label %136, label %138

136:                                              ; preds = %133
  %137 = load ptr, ptr %11, align 8, !tbaa !48
  call void @PMIx_Argv_free(ptr noundef %137)
  store ptr null, ptr %11, align 8, !tbaa !48
  br label %138

138:                                              ; preds = %136, %133
  %139 = load i32, ptr %9, align 4, !tbaa !18
  store i32 1, ptr %20, align 4
  call void @llvm.lifetime.end.p0(i64 4, ptr %18) #15
  call void @llvm.lifetime.end.p0(i64 4, ptr %17) #15
  call void @llvm.lifetime.end.p0(i64 4, ptr %16) #15
  call void @llvm.lifetime.end.p0(i64 4, ptr %15) #15
  call void @llvm.lifetime.end.p0(i64 8, ptr %14) #15
  call void @llvm.lifetime.end.p0(i64 8, ptr %13) #15
  call void @llvm.lifetime.end.p0(i64 8, ptr %12) #15
  call void @llvm.lifetime.end.p0(i64 8, ptr %11) #15
  call void @llvm.lifetime.end.p0(i64 8, ptr %10) #15
  call void @llvm.lifetime.end.p0(i64 4, ptr %9) #15
  ret i32 %139

140:                                              ; preds = %106
  unreachable
}

; Function Attrs: nounwind uwtable
define internal void @resolve_relative_paths(ptr noundef %0, ptr noundef %1, i1 noundef zeroext %2, ptr noundef %3, i8 noundef signext %4) #0 {
  %6 = alloca ptr, align 8
  %7 = alloca ptr, align 8
  %8 = alloca i8, align 1
  %9 = alloca ptr, align 8
  %10 = alloca i8, align 1
  %11 = alloca ptr, align 8
  %12 = alloca i32, align 4
  store ptr %0, ptr %6, align 8, !tbaa !48
  store ptr %1, ptr %7, align 8, !tbaa !47
  %13 = zext i1 %2 to i8
  store i8 %13, ptr %8, align 1, !tbaa !54
  store ptr %3, ptr %9, align 8, !tbaa !48
  store i8 %4, ptr %10, align 1, !tbaa !24
  call void @llvm.lifetime.start.p0(i64 8, ptr %11) #15
  %14 = load ptr, ptr %6, align 8, !tbaa !48
  %15 = load ptr, ptr %7, align 8, !tbaa !47
  %16 = load i8, ptr %8, align 1, !tbaa !54, !range !30, !noundef !31
  %17 = trunc i8 %16 to i1
  %18 = load i8, ptr %10, align 1, !tbaa !24
  %19 = call i32 @fixup_files(ptr noundef %14, ptr noundef %15, i1 noundef zeroext %17, i8 noundef signext %18)
  %20 = icmp ne i32 0, %19
  br i1 %20, label %21, label %22

21:                                               ; preds = %5
  br label %41

22:                                               ; preds = %5
  %23 = load ptr, ptr %6, align 8, !tbaa !48
  %24 = load ptr, ptr %23, align 8, !tbaa !47
  %25 = load i8, ptr %10, align 1, !tbaa !24
  %26 = sext i8 %25 to i32
  %27 = load ptr, ptr %9, align 8, !tbaa !48
  %28 = load ptr, ptr %27, align 8, !tbaa !47
  %29 = call i32 (ptr, ptr, ...) @asprintf(ptr noundef %11, ptr noundef @.str.39, ptr noundef %24, i32 noundef %26, ptr noundef %28) #15
  %30 = icmp sgt i32 0, %29
  br i1 %30, label %31, label %36

31:                                               ; preds = %22
  call void (i32, ptr, ...) @pmix_output(i32 noundef 0, ptr noundef @.str.68)
  %32 = load ptr, ptr %9, align 8, !tbaa !48
  %33 = load ptr, ptr %32, align 8, !tbaa !47
  call void @free(ptr noundef %33) #15
  %34 = load ptr, ptr %11, align 8, !tbaa !47
  call void @free(ptr noundef %34) #15
  %35 = load ptr, ptr %9, align 8, !tbaa !48
  store ptr null, ptr %35, align 8, !tbaa !47
  store i32 1, ptr %12, align 4
  br label %42

36:                                               ; preds = %22
  %37 = load ptr, ptr %9, align 8, !tbaa !48
  %38 = load ptr, ptr %37, align 8, !tbaa !47
  call void @free(ptr noundef %38) #15
  %39 = load ptr, ptr %11, align 8, !tbaa !47
  %40 = load ptr, ptr %9, align 8, !tbaa !48
  store ptr %39, ptr %40, align 8, !tbaa !47
  br label %41

41:                                               ; preds = %36, %21
  store i32 0, ptr %12, align 4
  br label %42

42:                                               ; preds = %41, %31
  call void @llvm.lifetime.end.p0(i64 8, ptr %11) #15
  %43 = load i32, ptr %12, align 4
  switch i32 %43, label %45 [
    i32 0, label %44
    i32 1, label %44
  ]

44:                                               ; preds = %42, %42
  ret void

45:                                               ; preds = %42
  unreachable
}