; Function Attrs: nounwind uwtable
define internal fastcc void @resolve_relative_paths(ptr noundef %0, i1 noundef zeroext %1) unnamed_addr #0 {
  %3 = alloca ptr, align 8
  %4 = alloca i32, align 4
  %5 = alloca ptr, align 8
  call void @llvm.lifetime.start.p0(i64 8, ptr nonnull %5) #25
  call void @llvm.lifetime.start.p0(i64 8, ptr nonnull %3) #25
  store ptr null, ptr %3, align 8, !tbaa !64
  call void @llvm.lifetime.start.p0(i64 4, ptr nonnull %4) #25
  store i32 0, ptr %4, align 4, !tbaa !16
  %6 = tail call ptr @PMIx_Argv_split(ptr noundef %0, i32 noundef 58) #25
  %7 = load ptr, ptr @pmix_mca_base_var_file_prefix, align 8, !tbaa !51
  %8 = tail call ptr @PMIx_Argv_split(ptr noundef %7, i32 noundef 58) #25
  %9 = tail call i32 @PMIx_Argv_count(ptr noundef %8) #25
  %10 = load ptr, ptr @force_agg_path, align 8, !tbaa !51
  %.not.i = icmp eq ptr %10, null
  %11 = load ptr, ptr @cwd, align 8
  %12 = select i1 %.not.i, ptr %11, ptr %10
  %13 = icmp sgt i32 %9, 0
  br i1 %13, label %.lr.ph.i, label %._crit_edge.i

.lr.ph.i:                                         ; preds = %2
  %wide.trip.count26.i = zext nneg i32 %9 to i64
  br i1 %1, label %.lr.ph.split.us.i, label %.lr.ph.split.i

.lr.ph.split.us.i:                                ; preds = %.lr.ph.i, %24
  %indvars.iv23.i = phi i64 [ %indvars.iv.next24.i, %24 ], [ 0, %.lr.ph.i ]
  %14 = getelementptr inbounds nuw ptr, ptr %8, i64 %indvars.iv23.i
  %15 = load ptr, ptr %14, align 8, !tbaa !51
  %16 = call zeroext i1 @pmix_path_is_absolute(ptr noundef %15) #25
  %17 = load ptr, ptr %14, align 8, !tbaa !51
  br i1 %16, label %20, label %18

18:                                               ; preds = %.lr.ph.split.us.i
  %19 = call noalias ptr @pmix_path_find(ptr noundef %17, ptr noundef %6, i32 noundef 4, ptr noundef null) #25
  br label %22

20:                                               ; preds = %.lr.ph.split.us.i
  %21 = call noalias ptr (i32, ...) @pmix_os_path(i32 noundef 0, ptr noundef %17, ptr noundef null) #25
  br label %22

22:                                               ; preds = %20, %18
  %.041.us.i = phi ptr [ %21, %20 ], [ %19, %18 ]
  %23 = icmp eq ptr %.041.us.i, null
  br i1 %23, label %.thread9.i, label %24

24:                                               ; preds = %22
  %25 = call i32 @pmix_argv_append(ptr noundef nonnull %4, ptr noundef nonnull %3, ptr noundef nonnull %.041.us.i) #25
  call void @free(ptr noundef nonnull %.041.us.i) #25
  %indvars.iv.next24.i = add nuw nsw i64 %indvars.iv23.i, 1
  %exitcond27.not.i = icmp eq i64 %indvars.iv.next24.i, %wide.trip.count26.i
  br i1 %exitcond27.not.i, label %._crit_edge.i, label %.lr.ph.split.us.i, !llvm.loop !66

.lr.ph.split.i:                                   ; preds = %.lr.ph.i, %40
  %indvars.iv.i = phi i64 [ %indvars.iv.next.i, %40 ], [ 0, %.lr.ph.i ]
  %26 = getelementptr inbounds nuw ptr, ptr %8, i64 %indvars.iv.i
  %27 = load ptr, ptr %26, align 8, !tbaa !51
  %28 = call zeroext i1 @pmix_path_is_absolute(ptr noundef %27) #25
  %29 = load ptr, ptr %26, align 8, !tbaa !51
  br i1 %28, label %30, label %32

30:                                               ; preds = %.lr.ph.split.i
  %31 = call noalias ptr (i32, ...) @pmix_os_path(i32 noundef 0, ptr noundef %29, ptr noundef null) #25
  br label %38

32:                                               ; preds = %.lr.ph.split.i
  %33 = call ptr @strchr(ptr noundef nonnull dereferenceable(1) %29, i32 noundef 47) #30
  %.not45.i = icmp eq ptr %33, null
  br i1 %.not45.i, label %36, label %34

34:                                               ; preds = %32
  %35 = call noalias ptr (i32, ...) @pmix_os_path(i32 noundef 0, ptr noundef nonnull %29, ptr noundef %12, ptr noundef null) #25
  br label %38

36:                                               ; preds = %32
  %37 = call noalias ptr @pmix_path_find(ptr noundef nonnull %29, ptr noundef %6, i32 noundef 4, ptr noundef null) #25
  br label %38

38:                                               ; preds = %36, %34, %30
  %.041.i = phi ptr [ %31, %30 ], [ %37, %36 ], [ %35, %34 ]
  %.038.i = phi ptr [ %0, %30 ], [ %0, %36 ], [ %12, %34 ]
  %39 = icmp eq ptr %.041.i, null
  br i1 %39, label %.thread9.i, label %40

40:                                               ; preds = %38
  %41 = call i32 @pmix_argv_append(ptr noundef nonnull %4, ptr noundef nonnull %3, ptr noundef nonnull %.041.i) #25
  call void @free(ptr noundef nonnull %.041.i) #25
  %indvars.iv.next.i = add nuw nsw i64 %indvars.iv.i, 1
  %exitcond.not.i = icmp eq i64 %indvars.iv.next.i, %wide.trip.count26.i
  br i1 %exitcond.not.i, label %._crit_edge.i, label %.lr.ph.split.i, !llvm.loop !66

.thread9.i:                                       ; preds = %38, %22
  %.us-phi.i = phi ptr [ %0, %22 ], [ %.038.i, %38 ]
  %indvars.iv23.i.pn = phi i64 [ %indvars.iv23.i, %22 ], [ %indvars.iv.i, %38 ]
  %.us-phi15.i = getelementptr inbounds nuw ptr, ptr %8, i64 %indvars.iv23.i.pn
  %42 = call i32 @getpid() #25
  %43 = load ptr, ptr %.us-phi15.i, align 8, !tbaa !51
  %44 = call i32 (ptr, ptr, i32, ...) @pmix_show_help(ptr noundef nonnull @.str.43, ptr noundef nonnull @.str.70, i32 noundef 1, i32 noundef %42, ptr noundef %43, ptr noundef %.us-phi.i) #25
  br label %48

._crit_edge.i:                                    ; preds = %40, %24, %2
  %45 = load ptr, ptr @pmix_mca_base_var_file_prefix, align 8, !tbaa !51
  call void @free(ptr noundef %45) #25
  %46 = load ptr, ptr %3, align 8, !tbaa !64
  %47 = call ptr @PMIx_Argv_join(ptr noundef %46, i32 noundef 58) #25
  store ptr %47, ptr @pmix_mca_base_var_file_prefix, align 8, !tbaa !51
  %.not46.i = icmp eq ptr %8, null
  br i1 %.not46.i, label %50, label %48

48:                                               ; preds = %._crit_edge.i, %.thread9.i
  %49 = phi i1 [ false, %.thread9.i ], [ true, %._crit_edge.i ]
  call void @PMIx_Argv_free(ptr noundef nonnull %8) #25
  br label %50

50:                                               ; preds = %48, %._crit_edge.i
  %.1713.i = phi i1 [ %49, %48 ], [ true, %._crit_edge.i ]
  %51 = load ptr, ptr %3, align 8, !tbaa !64
  %.not47.i = icmp eq ptr %51, null
  br i1 %.not47.i, label %53, label %52

52:                                               ; preds = %50
  call void @PMIx_Argv_free(ptr noundef nonnull %51) #25
  store ptr null, ptr %3, align 8, !tbaa !64
  br label %53

53:                                               ; preds = %52, %50
  %.not48.i = icmp eq ptr %6, null
  br i1 %.not48.i, label %fixup_files.exit, label %54

54:                                               ; preds = %53
  call void @PMIx_Argv_free(ptr noundef nonnull %6) #25
  br label %fixup_files.exit

fixup_files.exit:                                 ; preds = %53, %54
  call void @llvm.lifetime.end.p0(i64 4, ptr nonnull %4) #25
  call void @llvm.lifetime.end.p0(i64 8, ptr nonnull %3) #25
  br i1 %.1713.i, label %55, label %66

55:                                               ; preds = %fixup_files.exit
  %56 = load ptr, ptr @pmix_mca_base_var_file_prefix, align 8, !tbaa !51
  %57 = load ptr, ptr @pmix_mca_base_var_files, align 8, !tbaa !51
  %58 = call i32 (ptr, ptr, ...) @asprintf(ptr noundef nonnull %5, ptr noundef nonnull @.str.39, ptr noundef %56, i32 noundef 58, ptr noundef %57) #25
  %59 = icmp slt i32 %58, 0
  br i1 %59, label %60, label %63

60:                                               ; preds = %55
  call void (i32, ptr, ...) @pmix_output(i32 noundef 0, ptr noundef nonnull @.str.68) #25
  %61 = load ptr, ptr @pmix_mca_base_var_files, align 8, !tbaa !51
  call void @free(ptr noundef %61) #25
  %62 = load ptr, ptr %5, align 8, !tbaa !51
  call void @free(ptr noundef %62) #25
  br label %.sink.split

63:                                               ; preds = %55
  %64 = load ptr, ptr @pmix_mca_base_var_files, align 8, !tbaa !51
  call void @free(ptr noundef %64) #25
  %65 = load ptr, ptr %5, align 8, !tbaa !51
  br label %.sink.split

.sink.split:                                      ; preds = %60, %63
  %.sink = phi ptr [ %65, %63 ], [ null, %60 ]
  store ptr %.sink, ptr @pmix_mca_base_var_files, align 8, !tbaa !51
  br label %66

66:                                               ; preds = %.sink.split, %fixup_files.exit
  call void @llvm.lifetime.end.p0(i64 8, ptr nonnull %5) #25
  ret void
}